target datalayout = "e-m:e-p270:32:32-p271:32:32-p272:64:64-i64:64-i128:128-f80:128-n8:16:32:64-S128"
target triple = "x86_64-pc-linux-gnu"

@.str.6 = private unnamed_addr constant [3 x i8] c"rb\00", align 1
@.str.7 = private unnamed_addr constant [12 x i8] c"-----BEGIN \00", align 1

; Function Attrs: nounwind uwtable
define internal i32 @load_file(ptr noundef %0, ptr noundef %1, ptr noundef %2) #0 {
  %4 = alloca i32, align 4
  %5 = alloca ptr, align 8
  %6 = alloca ptr, align 8
  %7 = alloca ptr, align 8
  %8 = alloca ptr, align 8
  %9 = alloca i64, align 8
  %10 = alloca i32, align 4
  store ptr %0, ptr %5, align 8, !tbaa !15
  store ptr %1, ptr %6, align 8, !tbaa !12
  store ptr %2, ptr %7, align 8, !tbaa !17
  call void @llvm.lifetime.start.p0(i64 8, ptr %8) #10
  call void @llvm.lifetime.start.p0(i64 8, ptr %9) #10
  %11 = load ptr, ptr %5, align 8, !tbaa !15
  %12 = call noalias ptr @fopen(ptr noundef %11, ptr noundef @.str.6)
  store ptr %12, ptr %8, align 8, !tbaa !26
  %13 = icmp eq ptr %12, null
  br i1 %13, label %14, label %15

14:                                               ; preds = %3
  store i32 -13440, ptr %4, align 4
  store i32 1, ptr %10, align 4
  br label %78

15:                                               ; preds = %3
  %16 = load ptr, ptr %8, align 8, !tbaa !26
  %17 = call i32 @fseek(ptr noundef %16, i64 noundef 0, i32 noundef 2)
  %18 = load ptr, ptr %8, align 8, !tbaa !26
  %19 = call i64 @ftell(ptr noundef %18)
  store i64 %19, ptr %9, align 8, !tbaa !20
  %20 = icmp eq i64 %19, -1
  br i1 %20, label %21, label %24

21:                                               ; preds = %15
  %22 = load ptr, ptr %8, align 8, !tbaa !26
  %23 = call i32 @fclose(ptr noundef %22)
  store i32 -13440, ptr %4, align 4
  store i32 1, ptr %10, align 4
  br label %78

24:                                               ; preds = %15
  %25 = load ptr, ptr %8, align 8, !tbaa !26
  %26 = call i32 @fseek(ptr noundef %25, i64 noundef 0, i32 noundef 0)
  %27 = load i64, ptr %9, align 8, !tbaa !20
  %28 = load ptr, ptr %7, align 8, !tbaa !17
  store i64 %27, ptr %28, align 8, !tbaa !20
  %29 = load ptr, ptr %7, align 8, !tbaa !17
  %30 = load i64, ptr %29, align 8, !tbaa !20
  %31 = add i64 %30, 1
  %32 = icmp eq i64 %31, 0
  br i1 %32, label %40, label %33

33:                                               ; preds = %24
  %34 = load ptr, ptr %7, align 8, !tbaa !17
  %35 = load i64, ptr %34, align 8, !tbaa !20
  %36 = add i64 %35, 1
  %37 = call noalias ptr @calloc(i64 noundef 1, i64 noundef %36) #11
  %38 = load ptr, ptr %6, align 8, !tbaa !12
  store ptr %37, ptr %38, align 8, !tbaa !15
  %39 = icmp eq ptr %37, null
  br i1 %39, label %40, label %43

40:                                               ; preds = %33, %24
  %41 = load ptr, ptr %8, align 8, !tbaa !26
  %42 = call i32 @fclose(ptr noundef %41)
  store i32 -13312, ptr %4, align 4
  store i32 1, ptr %10, align 4
  br label %78

43:                                               ; preds = %33
  %44 = load ptr, ptr %6, align 8, !tbaa !12
  %45 = load ptr, ptr %44, align 8, !tbaa !15
  %46 = load ptr, ptr %7, align 8, !tbaa !17
  %47 = load i64, ptr %46, align 8, !tbaa !20
  %48 = load ptr, ptr %8, align 8, !tbaa !26
  %49 = call i64 @fread(ptr noundef %45, i64 noundef 1, i64 noundef %47, ptr noundef %48)
  %50 = load ptr, ptr %7, align 8, !tbaa !17
  %51 = load i64, ptr %50, align 8, !tbaa !20
  %52 = icmp ne i64 %49, %51
  br i1 %52, label %53, label %61

53:                                               ; preds = %43
  %54 = load ptr, ptr %8, align 8, !tbaa !26
  %55 = call i32 @fclose(ptr noundef %54)
  %56 = load ptr, ptr %6, align 8, !tbaa !12
  %57 = load ptr, ptr %56, align 8, !tbaa !15
  %58 = load ptr, ptr %7, align 8, !tbaa !17
  %59 = load i64, ptr %58, align 8, !tbaa !20
  %60 = add i64 %59, 1
  call void @mbedtls_zeroize_and_free(ptr noundef %57, i64 noundef %60)
  store i32 -13440, ptr %4, align 4
  store i32 1, ptr %10, align 4
  br label %78

61:                                               ; preds = %43
  %62 = load ptr, ptr %8, align 8, !tbaa !26
  %63 = call i32 @fclose(ptr noundef %62)
  %64 = load ptr, ptr %6, align 8, !tbaa !12
  %65 = load ptr, ptr %64, align 8, !tbaa !15
  %66 = load ptr, ptr %7, align 8, !tbaa !17
  %67 = load i64, ptr %66, align 8, !tbaa !20
  %68 = getelementptr inbounds nuw i8, ptr %65, i64 %67
  store i8 0, ptr %68, align 1, !tbaa !22
  %69 = load ptr, ptr %6, align 8, !tbaa !12
  %70 = load ptr, ptr %69, align 8, !tbaa !15
  %71 = call ptr @strstr(ptr noundef %70, ptr noundef @.str.7) #12
  %72 = icmp ne ptr %71, null
  br i1 %72, label %73, label %77

73:                                               ; preds = %61
  %74 = load ptr, ptr %7, align 8, !tbaa !17
  %75 = load i64, ptr %74, align 8, !tbaa !20
  %76 = add i64 %75, 1
  store i64 %76, ptr %74, align 8, !tbaa !20
  br label %77

77:                                               ; preds = %73, %61
  store i32 0, ptr %4, align 4
  store i32 1, ptr %10, align 4
  br label %78

78:                                               ; preds = %77, %53, %40, %21, %14
  call void @llvm.lifetime.end.p0(i64 8, ptr %9) #10
  call void @llvm.lifetime.end.p0(i64 8, ptr %8) #10
  %79 = load i32, ptr %4, align 4
  ret i32 %79
}

; Function Attrs: nounwind uwtable
define hidden i32 @mbedtls_dhm_parse_dhmfile(ptr noundef %0, ptr noundef %1) #0 {
  %3 = alloca i32, align 4
  %4 = alloca ptr, align 8
  %5 = alloca ptr, align 8
  %6 = alloca i32, align 4
  %7 = alloca i64, align 8
  %8 = alloca ptr, align 8
  %9 = alloca i32, align 4
  store ptr %0, ptr %4, align 8, !tbaa !3
  store ptr %1, ptr %5, align 8, !tbaa !15
  call void @llvm.lifetime.start.p0(i64 4, ptr %6) #10
  store i32 -110, ptr %6, align 4, !tbaa !8
  call void @llvm.lifetime.start.p0(i64 8, ptr %7) #10
  call void @llvm.lifetime.start.p0(i64 8, ptr %8) #10
  %10 = load ptr, ptr %5, align 8, !tbaa !15
  %11 = call i32 @load_file(ptr noundef %10, ptr noundef %8, ptr noundef %7)
  store i32 %11, ptr %6, align 4, !tbaa !8
  %12 = icmp ne i32 %11, 0
  br i1 %12, label %13, label %15

13:                                               ; preds = %2
  %14 = load i32, ptr %6, align 4, !tbaa !8
  store i32 %14, ptr %3, align 4
  store i32 1, ptr %9, align 4
  br label %23

15:                                               ; preds = %2
  %16 = load ptr, ptr %4, align 8, !tbaa !3
  %17 = load ptr, ptr %8, align 8, !tbaa !15
  %18 = load i64, ptr %7, align 8, !tbaa !20
  %19 = call i32 @mbedtls_dhm_parse_dhm(ptr noundef %16, ptr noundef %17, i64 noundef %18)
  store i32 %19, ptr %6, align 4, !tbaa !8
  %20 = load ptr, ptr %8, align 8, !tbaa !15
  %21 = load i64, ptr %7, align 8, !tbaa !20
  call void @mbedtls_zeroize_and_free(ptr noundef %20, i64 noundef %21)
  %22 = load i32, ptr %6, align 4, !tbaa !8
  store i32 %22, ptr %3, align 4
  store i32 1, ptr %9, align 4
  br label %23

23:                                               ; preds = %15, %13
  call void @llvm.lifetime.end.p0(i64 8, ptr %8) #10
  call void @llvm.lifetime.end.p0(i64 8, ptr %7) #10
  call void @llvm.lifetime.end.p0(i64 4, ptr %6) #10
  %24 = load i32, ptr %3, align 4
  ret i32 %24
}