; Function Attrs: nounwind uwtable
define hidden i32 @mbedtls_dhm_parse_dhmfile(ptr noundef %0, ptr noundef readonly captures(none) %1) local_unnamed_addr #2 {
  %3 = tail call noalias ptr @fopen(ptr noundef readonly %1, ptr noundef nonnull @.str.6)
  %4 = icmp eq ptr %3, null
  br i1 %4, label %load_file.exit.thread, label %5

5:                                                ; preds = %2
  %6 = tail call i32 @fseek(ptr noundef nonnull %3, i64 noundef 0, i32 noundef 2)
  %7 = tail call i64 @ftell(ptr noundef nonnull %3)
  %8 = icmp eq i64 %7, -1
  br i1 %8, label %9, label %11

9:                                                ; preds = %5
  %10 = tail call i32 @fclose(ptr noundef nonnull %3)
  br label %load_file.exit.thread

11:                                               ; preds = %5
  %12 = tail call i32 @fseek(ptr noundef nonnull %3, i64 noundef 0, i32 noundef 0)
  %13 = add nuw i64 %7, 1
  %14 = tail call noalias ptr @calloc(i64 noundef 1, i64 noundef %13) #11
  %15 = icmp eq ptr %14, null
  br i1 %15, label %16, label %18

16:                                               ; preds = %11
  %17 = tail call i32 @fclose(ptr noundef nonnull %3)
  br label %load_file.exit.thread

18:                                               ; preds = %11
  %19 = tail call i64 @fread(ptr noundef nonnull %14, i64 noundef 1, i64 noundef %7, ptr noundef nonnull %3)
  %.not.i = icmp eq i64 %19, %7
  %20 = tail call i32 @fclose(ptr noundef nonnull %3)
  br i1 %.not.i, label %load_file.exit, label %21

21:                                               ; preds = %18
  tail call void @mbedtls_zeroize_and_free(ptr noundef nonnull %14, i64 noundef %13) #10
  br label %load_file.exit.thread

load_file.exit:                                   ; preds = %18
  %22 = getelementptr inbounds nuw i8, ptr %14, i64 %7
  store i8 0, ptr %22, align 1, !tbaa !8
  %23 = tail call ptr @strstr(ptr noundef nonnull dereferenceable(1) %14, ptr noundef nonnull dereferenceable(1) @.str.7) #12
  %.not27.i = icmp eq ptr %23, null
  %spec.select = select i1 %.not27.i, i64 %7, i64 %13
  %24 = tail call i32 @mbedtls_dhm_parse_dhm(ptr noundef %0, ptr noundef nonnull %14, i64 noundef %spec.select)
  tail call void @mbedtls_zeroize_and_free(ptr noundef nonnull %14, i64 noundef %spec.select) #10
  br label %load_file.exit.thread

load_file.exit.thread:                            ; preds = %2, %21, %16, %9, %load_file.exit
  %.0 = phi i32 [ %24, %load_file.exit ], [ -13440, %2 ], [ -13440, %21 ], [ -13312, %16 ], [ -13440, %9 ]
  ret i32 %.0
}